EXPORTS
    ElectreIIIExplotarDestilacion @1
    ElectreIIIExplotarFlujoNeto @2
    _Z16sMatrizDesempenoB5cxx11 @3 DATA
    _ZN10ElectreIII10RankearTmpEP7Rankingi @4
    _ZN10ElectreIII16CompararRankingsE7RankingS0_ @5
    _ZN10ElectreIII17CalcularMatrizTDEEP7Rankingd @6
    _ZN10ElectreIII17CalcularMatrizTFNEd @7
    _ZN10ElectreIII17ExplotarFlujoNetoB5cxx11Ev @8
    _ZN10ElectreIII19ExplotarDestilacionB5cxx11Ev @9
    _ZN10ElectreIII22FormatearSalidaRankingERNSt7__cxx1112basic_stringIcSt11char_traitsIcESaIcEEEP7Rankings @10
    _ZN10ElectreIII25ObtenerMatrizConcordanciaB5cxx11Ev @11
    _ZN10ElectreIII25ObtenerMatrizCredibilidadB5cxx11Ev @12
    _ZN10ElectreIII25ObtenerMatrizDiscordanciaB5cxx11Ev @13
    _ZN10ElectreIII26CalcularMatrizConcordanciaEv @14
    _ZN10ElectreIII26CalcularMatrizCredibilidadEv @15
    _ZN10ElectreIII26CalcularMatrizDiscordanciaEv @16
    _ZN10ElectreIII9ConstruirEv @17
    _ZN10ElectreIIIC1Eiid @18
    _ZN10ElectreIIIC2Eiid @19
    _ZN10ElectreIIID1Ev @20
    _ZN10ElectreIIID2Ev @21
    _ZN10Superacion13IngresarDatosENSt7__cxx1112basic_stringIcSt11char_traitsIcESaIcEEE @22
    _ZN10SuperacionC1Eii @23
    _ZN10SuperacionC2Eii @24
    _ZN10SuperacionD1Ev @25
    _ZN10SuperacionD2Ev @26
    _ZN13AlternativaMDC1Ev @27
    _ZN13AlternativaMDD1Ev @28
    _ZN7RankingC1EOS_ @29
    _ZN7RankingC1ERKS_ @30
    _ZN7RankingC1Ev @31
    _ZN7RankingD1Ev @32
    _ZN7RankingaSEOS_ @33
    _ZN7RankingaSERKS_ @34
    _ZN9__gnu_cxx5__ops14_Iter_comp_valIPFb7RankingS2_EEC1EONS0_15_Iter_comp_iterIS4_EE @35
    _ZN9__gnu_cxx5__ops14_Iter_comp_valIPFb7RankingS2_EEclIPS2_S2_EEbT_RT0_ @36
    _ZN9__gnu_cxx5__ops14_Val_comp_iterIPFb7RankingS2_EEC1EONS0_15_Iter_comp_iterIS4_EE @37
    _ZN9__gnu_cxx5__ops14_Val_comp_iterIPFb7RankingS2_EEclIS2_PS2_EEbRT_T0_ @38
    _ZN9__gnu_cxx5__ops15_Iter_comp_iterIPFb7RankingS2_EEC1ES4_ @39
    _ZN9__gnu_cxx5__ops15_Iter_comp_iterIPFb7RankingS2_EEclIPS2_S7_EEbT_T0_ @40
    _ZN9__gnu_cxx5__ops15__val_comp_iterIPFb7RankingS2_EEENS0_14_Val_comp_iterIT_EENS0_15_Iter_comp_iterIS6_EE @41
    _ZN9__gnu_cxx5__ops16__iter_comp_iterIPFb7RankingS2_EEENS0_15_Iter_comp_iterIT_EES6_ @42
    _ZNSt20__copy_move_backwardILb1ELb0ESt26random_access_iterator_tagE13__copy_move_bIP7RankingS4_EET0_T_S6_S5_ @43
    _ZSt10__pop_heapIP7RankingN9__gnu_cxx5__ops15_Iter_comp_iterIPFbS0_S0_EEEEvT_S8_S8_RT0_ @44
    _ZSt11__make_heapIP7RankingN9__gnu_cxx5__ops15_Iter_comp_iterIPFbS0_S0_EEEEvT_S8_RT0_ @45
    _ZSt11__push_heapIP7RankingxS0_N9__gnu_cxx5__ops14_Iter_comp_valIPFbS0_S0_EEEEvT_T0_S9_T1_RT2_ @46
    _ZSt11__sort_heapIP7RankingN9__gnu_cxx5__ops15_Iter_comp_iterIPFbS0_S0_EEEEvT_S8_RT0_ @47
    _ZSt12__miter_baseIP7RankingET_S2_ @48
    _ZSt12__niter_baseIP7RankingET_S2_ @49
    _ZSt13__adjust_heapIP7RankingxS0_N9__gnu_cxx5__ops15_Iter_comp_iterIPFbS0_S0_EEEEvT_T0_S9_T1_T2_ @50
    _ZSt13__heap_selectIP7RankingN9__gnu_cxx5__ops15_Iter_comp_iterIPFbS0_S0_EEEEvT_S8_S8_T0_ @51
    _ZSt13move_backwardIP7RankingS1_ET0_T_S3_S2_ @52
    _ZSt14__partial_sortIP7RankingN9__gnu_cxx5__ops15_Iter_comp_iterIPFbS0_S0_EEEEvT_S8_S8_T0_ @53
    _ZSt16__insertion_sortIP7RankingN9__gnu_cxx5__ops15_Iter_comp_iterIPFbS0_S0_EEEEvT_S8_T0_ @54
    _ZSt16__introsort_loopIP7RankingxN9__gnu_cxx5__ops15_Iter_comp_iterIPFbS0_S0_EEEEvT_S8_T0_T1_ @55
    _ZSt21__unguarded_partitionIP7RankingN9__gnu_cxx5__ops15_Iter_comp_iterIPFbS0_S0_EEEET_S8_S8_S8_T0_ @56
    _ZSt22__copy_move_backward_aILb1EP7RankingS1_ET1_T0_S3_S2_ @57
    _ZSt22__final_insertion_sortIP7RankingN9__gnu_cxx5__ops15_Iter_comp_iterIPFbS0_S0_EEEEvT_S8_T0_ @58
    _ZSt22__move_median_to_firstIP7RankingN9__gnu_cxx5__ops15_Iter_comp_iterIPFbS0_S0_EEEEvT_S8_S8_S8_T0_ @59
    _ZSt23__copy_move_backward_a2ILb1EP7RankingS1_ET1_T0_S3_S2_ @60
    _ZSt25__unguarded_linear_insertIP7RankingN9__gnu_cxx5__ops14_Val_comp_iterIPFbS0_S0_EEEEvT_T0_ @61
    _ZSt26__unguarded_insertion_sortIP7RankingN9__gnu_cxx5__ops15_Iter_comp_iterIPFbS0_S0_EEEEvT_S8_T0_ @62
    _ZSt27__unguarded_partition_pivotIP7RankingN9__gnu_cxx5__ops15_Iter_comp_iterIPFbS0_S0_EEEET_S8_S8_T0_ @63
    _ZSt4__lgx @64
    _ZSt4moveIR7RankingEONSt16remove_referenceIT_E4typeEOS3_ @65
    _ZSt4moveIRN9__gnu_cxx5__ops15_Iter_comp_iterIPFb7RankingS3_EEEEONSt16remove_referenceIT_E4typeEOS9_ @66
    _ZSt4moveIRPFb7RankingS0_EEONSt16remove_referenceIT_E4typeEOS5_ @67
    _ZSt4sortIP7RankingPFbS0_S0_EEvT_S4_T0_ @68
    _ZSt4swapI7RankingENSt9enable_ifIXsrSt6__and_IJSt6__not_ISt15__is_tuple_likeIT_EESt21is_move_constructibleIS5_ESt18is_move_assignableIS5_EEE5valueEvE4typeERS5_SF_ @69
    _ZSt6__sortIP7RankingN9__gnu_cxx5__ops15_Iter_comp_iterIPFbS0_S0_EEEEvT_S8_T0_ @70
    _ZSt9iter_swapIP7RankingS1_EvT_T0_ @71
    _ZStplIcSt11char_traitsIcESaIcEENSt7__cxx1112basic_stringIT_T0_T1_EERKS8_PKS5_ @72
    _ZTISt9exception @73 DATA
    _ZTSSt9exception @74 DATA
